(lp0
Vpeacock
p1
aVsevere headaches
p2
aVpheasant
p3
aVdark urine
p4
aVrod
p5
aVrabies virus
p6
aVblisters
p7
aVe. coli
p8
aVasymptomatic
p9
aVwebworm
p10
aVaggression
p11
aVklebsiella
p12
aVrunny nose
p13
aVrickettsia
p14
aVnorovirus
p15
aVblowfly
p16
aVpeanut
p17
aVdry cough
p18
aVbacillus anthracis
p19
aVwildcat
p20
aVlassa virus
p21
aVhopper
p22
aVnodules
p23
aVwave
p24
aVheadaches
p25
aVstiff neck
p26
aVhypotension
p27
aVweight loss
p28
aVpoliovirus
p29
aVfall
p30
aVsalmonella
p31
aVblast
p32
aVmeasles virus
p33
aVnausea
p34
aVentire
p35
aVstomach ache
p36
aVeschar
p37
aVneck stiffness
p38
aVshock
p39
aVchikungunya virus
p40
aVhendra virus
p41
aVdry season
p42
aVvector
p43
aVbiting midge
p44
aVmammal
p45
aVtrypanosoma
p46
aVhuman enterovirus 71
p47
aVdiarrhoea
p48
aVenterovirus
p49
aVlantana
p50
aVornamental
p51
aVneck pain
p52
aVtired
p53
aVbleeding
p54
aVtea
p55
aVcytomegalovirus
p56
aVlavender
p57
aVcrop
p58
aVpustules
p59
aVbacteria
p60
aVdepression
p61
aVblue
p62
aVmammalian
p63
aVpoke
p64
aVmagnolia
p65
aVgreenbrier
p66
aVconjunctivitis
p67
aVneurological symptoms
p68
aVtrillium
p69
aVjaundice
p70
aVbird
p71
aVrift valley fever virus
p72
aVmyalgias
p73
aVsmall white
p74
aVasthenia
p75
aVstallion
p76
aVurethritis
p77
aVmule
p78
aVdecreased appetite
p79
aVintestinal flora
p80
aVmiscarriage
p81
aVnausea and vomiting
p82
aVshellfish
p83
aVbox
p84
aVmonarch
p85
aVstupor
p86
aVnumbness
p87
aVmouth sores
p88
aVbot
p89
aVmental confusion
p90
aVhamster
p91
aVstiffness
p92
aVbuckwheat
p93
aVraccoon
p94
aVbreathing difficulties
p95
aVhydrophobia
p96
aVlymphadenitis
p97
aVhogg
p98
aVstray
p99
aVwesterly
p100
aVbrain damage
p101
aVbullock
p102
aVphotophobia
p103
aVsoybean
p104
aVlansing
p105
aVlime
p106
aVsweating
p107
aVcelery
p108
aVcough
p109
aVaedes aegypti
p110
aVsalmonella typhimurium
p111
aVheat wave
p112
aVthroat pain
p113
aVfrog
p114
aVcalm
p115
aVtachycardia
p116
aVcalf
p117
aVlinden
p118
aVrainfall
p119
aVloss of appetite
p120
aVretro-orbital pain
p121
aVrespiratory signs
p122
aVinfection
p123
aVgroup a streptococcus
p124
aVmelon
p125
aVflag
p126
aVparvo
p127
aVrabbit
p128
aVprotozoan
p129
aVcoyote
p130
aVsevere respiratory disease
p131
aVkrill
p132
aVglad
p133
aVcharity
p134
aVfly
p135
aVhigh
p136
aVflora
p137
aVeee virus
p138
aVprimate
p139
aVabortion
p140
aVcat
p141
aVstreptococcus
p142
aVden
p143
aVhaemorrhagic fever
p144
aVhippopotamus
p145
aVrespiratory infection
p146
aVbent
p147
aVbuckeye
p148
aVconfused
p149
aVautumn
p150
aVrainy season
p151
aVcarrot
p152
aVrainstorm
p153
aVscavenger
p154
aVfmdv
p155
aVoffspring
p156
aVrape
p157
aVredness
p158
aVpink
p159
aVhog
p160
aVdyspnoea
p161
aVruminant
p162
aVsiv
p163
aVulcers in the mouth
p164
aVscarring
p165
aVpoisonous plant
p166
aVred and watery eyes
p167
aVlesions
p168
aVlisteria monocytogenes
p169
aVanimal
p170
aVstock
p171
aVmap
p172
aVplant
p173
aVfever
p174
aVplasmodium
p175
aVflu-like symptoms
p176
aVabscess
p177
aVmay
p178
aVclostridium
p179
aVarthritis
p180
aVmac
p181
aVyellow fever virus
p182
aVfatigue
p183
aVfits
p184
aVmarrow
p185
aVhawk
p186
aVterrier
p187
aVwinter
p188
aVa
p189
aVleishmania
p190
aVbloating
p191
aVmemory loss
p192
aVarthralgia
p193
aVstop breathing
p194
aVhib
p195
aVst
p196
aVchest pain
p197
aVjoint pains
p198
aVcomatose
p199
aVmonocot
p200
aVwind
p201
aVfetus
p202
aVcheese
p203
aVbrain inflammation
p204
aVequid
p205
aVmeningococcus
p206
aVtrade
p207
aVswollen glands
p208
aVthermal
p209
aVdomesticated animal
p210
aVrespiratory problems
p211
aVnephritis
p212
aVcole
p213
aVgalaxy
p214
aVfoot and mouth disease virus
p215
aVsomnolence
p216
aVchihuahua
p217
aVmuscle atrophy
p218
aVmycobacterium tuberculosis
p219
aVurinary tract infection
p220
aVbuttercup
p221
aVtwitching
p222
aVfig
p223
aVdengue virus
p224
aVanemia
p225
aVhematuria
p226
aVbackache
p227
aVthoroughbred
p228
aVcoffee
p229
aVdrenching sweats
p230
aVsars coronavirus
p231
aVweakness
p232
aVdrowsiness
p233
aVsleepiness
p234
aVdak
p235
aVh3n8
p236
aVvomit
p237
aVsnake
p238
aVdas
p239
aVflea
p240
aVdisorientation
p241
aVh3n2
p242
aVhumanity
p243
aVsore throat
p244
aVparainfluenza virus
p245
aVlettuce
p246
aVh5n1
p247
aVhemoptysis
p248
aVborrelia
p249
aVretinitis
p250
aVcoagulation
p251
aVehd virus
p252
aVmonsoon
p253
aVnasal congestion
p254
aVcreature
p255
aVrosemary
p256
aVencephalitis
p257
aVincoordination
p258
aVproteinuria
p259
aVhemorrhagic fever
p260
aVsevere headache
p261
aVconstipation
p262
aVwild boar
p263
aVfish
p264
aVzebra
p265
aVirritation
p266
aVh1n1 flu virus
p267
aVlemongrass
p268
aVvibrio
p269
aVsoutherly
p270
aVvertigo
p271
aVhcv
p272
aVallergic reaction
p273
aVfevers
p274
aVatypical pneumonia
p275
aVdehydrated
p276
aVendemic
p277
aVstud
p278
aVinfluenza a(h3n2) virus
p279
aValphavirus
p280
aVbreathlessness
p281
aVeagle
p282
aVsuperbug
p283
aVpoor appetite
p284
aVmurmur
p285
aVpoppy
p286
aVweed
p287
aVpup
p288
aVsandfly
p289
aVblister
p290
aVequine
p291
aVh1n1
p292
aVgallina
p293
aVprotist
p294
aVostrich
p295
aVswine
p296
aVdaisy
p297
aVfree-tailed bat
p298
aVchills
p299
aVcopper
p300
aVev 71
p301
aVguan
p302
aVhsv-1
p303
aVfeeder
p304
aVelder
p305
aVstillbirth
p306
aVlegionellosis
p307
aVwhale
p308
aVbad weather
p309
aVcassava
p310
aVseizures
p311
aVtimothy
p312
aVhorse
p313
aVtoy
p314
aVmonkey
p315
aVtung
p316
aVailanthus
p317
aVacute respiratory symptoms
p318
aVcivet
p319
aVprickly pear
p320
aVadenovirus
p321
aVdraft
p322
aVanaemia
p323
aVtom
p324
aVman
p325
aVbanana
p326
aVpathogen
p327
aVheadache
p328
aVtomato
p329
aVswelling of the brain
p330
aVquarry
p331
aVdog
p332
aVseason
p333
aVpharyngitis
p334
aVparvovirus
p335
aVcardiac arrest
p336
aVgastroenteritis
p337
aVbreathing problems
p338
aVrsv
p339
aVsymptom
p340
aVvesper mouse
p341
aVpneumococcus
p342
aVanxiety
p343
aVsevere respiratory infection
p344
aVeiav
p345
aVtree
p346
aVmyalgia
p347
aVbee
p348
aVshower
p349
aVpneumonia
p350
aVboil
p351
aVfruit bat
p352
aVtorrent
p353
aVlarva
p354
aVsugar cane
p355
aVcoconut
p356
aVmink
p357
aVorgan failure
p358
aVsepticemia
p359
aVavian influenza virus
p360
aVfowl
p361
aVtupelo
p362
aVencephalopathy
p363
aVphytoplankton
p364
aVmarijuana
p365
aVginger
p366
aVant
p367
aVgale
p368
aVrat
p369
aVlull
p370
aVmiserable
p371
aVbordetella pertussis
p372
aVdementia
p373
aVmuscle pain
p374
aVfauna
p375
aVcactus
p376
aVpreterm
p377
aVsevere pain
p378
aVfitting
p379
aVmild fever
p380
aVskin lesions
p381
aVhaemophilus influenzae type b
p382
aVwaterfowl
p383
aVlisteria
p384
aVexcessive sweating
p385
aVsars virus
p386
aVaids virus
p387
aVpain
p388
aVsars-cov
p389
aVgastrointestinal symptoms
p390
aVelectrolyte imbalance
p391
aVseptic shock
p392
aVvirus
p393
aVrigor
p394
aVafrican swine fever virus
p395
aVcracking
p396
aVneuritis
p397
aVneurological damage
p398
aVoyster
p399
aVmaria
p400
aVpremature birth
p401
aVpersistent vomiting
p402
aVbracken
p403
aVpyrexia
p404
aVlocust
p405
aVfilly
p406
aVsores
p407
aVdoe
p408
aVargus
p409
aVpineapple
p410
aVwarming
p411
aVpersonality changes
p412
aVskunk
p413
aVatmosphere
p414
aVaquatic
p415
aVcereal
p416
aVsparrow
p417
aVlotus
p418
aVswelling
p419
aVqueen
p420
aVparvo virus
p421
aVling
p422
aVseaweed
p423
aVtiredness
p424
aVmiller
p425
aVgasping
p426
aVculex pipiens
p427
aVgnat
p428
aVherbivore
p429
aVcamel
p430
aVrash
p431
aVbug
p432
aVdermatitis
p433
aVbush
p434
aVmaculopapular
p435
aVcoryza
p436
aVnewcastle disease virus
p437
aVwoodchuck
p438
aVhippo
p439
aVhiv
p440
aVbody ache
p441
aVcoxiella burnetii
p442
aVrespiratory failure
p443
aVbear
p444
aVbean
p445
aVmalaise
p446
aVwatermelon
p447
aVinfluenza a virus
p448
aVabscess formation
p449
aValexander
p450
aVbat
p451
aVskin rash
p452
aVsteamer
p453
aVintense pain
p454
aVcoughs
p455
aVdizziness
p456
aVflu symptoms
p457
aVsuckling
p458
aVlethargy
p459
aVabdominal pain
p460
aVhumans
p461
aVcanine
p462
aVfreeze
p463
aVliver dysfunction
p464
aVthistle
p465
aVseal
p466
aVsanta ana
p467
aVlung infection
p468
aVpurpura
p469
aVdysentery
p470
aVthrombocytopenia
p471
aVscattering
p472
aVfeline
p473
aVred eyes
p474
aVhumankind
p475
aVross river virus
p476
aVconditions
p477
aVc. difficile
p478
aVserious respiratory illness
p479
aVlow grade fever
p480
aVamazon
p481
aVsin nombre virus
p482
aVconfusion
p483
aVweak
p484
aVreovirus
p485
aVsamba
p486
aVsimian immunodeficiency virus
p487
aVvre
p488
aVcoma
p489
aVneisseria gonorrhea
p490
aVheather
p491
aVvomiting
p492
aVescherichia coli
p493
aVcolony collapse
p494
aVrashes
p495
aVcow
p496
aVitchy rash
p497
aVannual
p498
aVhantavirus
p499
aVsevere joint pains
p500
aVarbor
p501
aVclassical swine fever virus
p502
aVeggplant
p503
aVwatery diarrhea
p504
aVbody pain
p505
aVnasal discharge
p506
aVdysphagia
p507
aVdistress
p508
aVsimple
p509
aVsepsis
p510
aVh3n2 virus
p511
aVleon
p512
aValtered mental status
p513
aVbegonia
p514
aVpetechiae
p515
aVtadarida brasiliensis
p516
aVataxia
p517
aVpoll
p518
aVdyspnea
p519
aVoral lesions
p520
aVrenal failure
p521
aVmara
p522
aVhepatomegaly
p523
aVabaca
p524
aVvertebrate
p525
aVrespiratory arrest
p526
aVhaemorrhage
p527
aVchrysanthemum
p528
aVwheezing
p529
aVchlamydophila abortus
p530
aVexhaustion
p531
aVclostridium difficile
p532
aVmuscle aches
p533
aVmeningitis
p534
aVchikv
p535
aVcoughing
p536
aVsunshine
p537
aVgas
p538
aVlumpy skin disease virus
p539
aVbull
p540
aVpeste des petits ruminants virus
p541
aVchill
p542
aVpsyllid
p543
aVgeneralized aches and pains
p544
aVgreen algae
p545
aVspasms
p546
aVseedling
p547
aVtang
p548
aVcapsicum
p549
aVair
p550
aVape
p551
aVherpes zoster
p552
aVcoca
p553
aVcoco
p554
aVmultiple organ failure
p555
aVveronica
p556
aVswollen lymph glands
p557
aVagitation
p558
aVmoth
p559
aVsquid
p560
aVanil
p561
aVjoint pain
p562
aVquiet
p563
aVaggressiveness
p564
aVbeaver
p565
aVmouse
p566
aVworry
p567
aVleafhopper
p568
aVrespiratory distress
p569
aVplaques
p570
aVmedic
p571
aVinfectious agent
p572
aVlymphangitis
p573
aVaphid
p574
aVtime of year
p575
aVflower
p576
aVdam
p577
aVvegetable
p578
aVbreathless
p579
aVhoneybee
p580
aVliver failure
p581
aVsucculent
p582
aVchronic diarrhea
p583
aVmachupo virus
p584
aVfoal
p585
aVrain
p586
aVkit
p587
aVplant virus
p588
aVgarlic
p589
aVjapanese encephalitis virus
p590
aVbirch
p591
aVbronchiolitis
p592
aVstomach pain
p593
aVtuna
p594
aVafghan
p595
aVcultivar
p596
aVhot weather
p597
aVpoultry
p598
aVeucalyptus
p599
aVtoxicity
p600
aVweld
p601
aVperennial
p602
aVinfertility
p603
aVshortness of breath
p604
aVwest nile virus
p605
aVabdominal cramps
p606
aVmultiple abscesses
p607
aVbreeze
p608
aVrespiratory insufficiency
p609
aVsummer
p610
aVlivestock
p611
aVedema
p612
aVhuman immunodeficiency virus
p613
aVsimian
p614
aVrodent
p615
aVdehydration
p616
aVhuman
p617
aVlaurel
p618
aVscabs
p619
aVinternal bleeding
p620
aVromaine lettuce
p621
aVblow
p622
aVhyperesthesia
p623
aVrotavirus
p624
aVdeath
p625
aVasthma
p626
aVrose
p627
aVnipah virus
p628
aVroyal
p629
aVhag
p630
aVdifficulty breathing
p631
aVpupa
p632
aVrhinovirus
p633
aVeaster
p634
aVcervid
p635
aVbloody diarrhea
p636
aVparamyxovirus
p637
aVcerebral hemorrhage
p638
aVrespiratory symptoms
p639
aVh5n1 virus
p640
aVotitis
p641
aVreptilian
p642
aVfrail
p643
aVmanatee
p644
aVabnormal behavior
p645
aVgangrene
p646
aVhallucinations
p647
aVstunt
p648
aVmoa
p649
aVtick
p650
aVprecipitation
p651
aVclam
p652
aVonion
p653
aVmidge
p654
aVretrovirus
p655
aVdiscomfort
p656
aVmuscle tremors
p657
aVai
p658
aVmosquito
p659
aVclay
p660
aVchick
p661
aVunable to fly
p662
aVsoft
p663
aVspring
p664
aVash
p665
aVhydrocephalus
p666
aVskunk cabbage
p667
aVharmattan
p668
aVboar
p669
aVgrowth retardation
p670
aVcachexia
p671
aVb. anthracis
p672
aVsalmonella typhi
p673
aVescape
p674
aVhemorrhage
p675
aVbruising
p676
aVflavivirus
p677
aVsevere respiratory illness
p678
aVcoxsackievirus
p679
aVvision loss
p680
aVpet
p681
aVpain in the joints
p682
aVfox
p683
aVvibrio cholerae
p684
aVhepatitis
p685
aVsugarcane
p686
aVfog
p687
aVplantain
p688
aVconvulsions
p689
aVacute respiratory distress
p690
aVpepper
p691
aVsquirrel
p692
aVmarine animal
p693
aVitching
p694
aVslurred speech
p695
aVchest tightness
p696
aVhygrophyte
p697
aVpondweed
p698
aVtremors
p699
aVlegionella
p700
aVmite
p701
aVherpes
p702
aVcoral
p703
aVparalysis
p704
aVinsect
p705
aVwillow
p706
aVvibrio parahaemolyticus
p707
aVounce
p708
aVmuscle weakness
p709
aVbiennial
p710
aVchow
p711
aVpolar bear
p712
aVmuscle pains
p713
aVndv
p714
aVtriton
p715
aVkidney failure
p716
aVreptile
p717
aVcoconut palm
p718
aVmicroorganism
p719
aVburning
p720
aVwasting
p721
aVdeafness
p722
aVbone pain
p723
aVswollen lymph nodes
p724
aVfern
p725
aVviral fever
p726
aVrespiratory illness
p727
aVweather
p728
aVwater plant
p729
aVsow
p730
aVsoy
p731
aVblurred vision
p732
aVanorexia
p733
aVbreath
p734
aVmaple
p735
aVdry mouth
p736
aVsneezing
p737
aVborer
p738
aVgroundnut
p739
aVlow
p740
aVmyoclonus
p741
aVhen
p742
aVsesame
p743
aVsevere pneumonia
p744
aVthrips
p745
aVwaterbird
p746
aVebola virus
p747
aVpetechial rash
p748
aVnightshade
p749
aVfrost
p750
aVbrucella
p751
aVwnv
p752
aVbeech
p753
aVsprinkling
p754
aVinternal and external bleeding
p755
aVdifficulty swallowing
p756
aVdromedary
p757
aVrush
p758
aVsalmonella enteritidis
p759
aVrock hyrax
p760
aVerica
p761
aVpalm
p762
aVbody aches
p763
aVgrass
p764
aVev71
p765
aVmuscle spasms
p766
aVinfluenza a (h1n1) virus
p767
aVmycobacterium
p768
aVfour o'clock
p769
aVpia
p770
aVmarmot
p771
aVdeer
p772
aVenterococcus
p773
aVpig
p774
aVhypertension
p775
aVexcessive salivation
p776
aVharvest
p777
aVrespiratory syncytial virus
p778
aVexhausted
p779
aVchlamydia
p780
aVquail
p781
aVdifficulty feeding
p782
aVtaro
p783
aVinfluenza-like illness
p784
aVdomestic animal
p785
aVdiarrhea
p786
aVgasping for air
p787
aVapnea
p788
aVpuppy
p789
aVsevere diarrhea
p790
aVneisseria meningitidis
p791
aVelements
p792
aVbacillus
p793
aVback pain
p794
aVlymphadenopathy
p795
aVnight sweats
p796
aVfebrile illness
p797
aVcyanosis
p798
aVfoetus
p799
aVtick-borne encephalitis virus
p800
aVpotato
p801
aVvaricella-zoster virus
p802
aVheart failure
p803
aVorchitis
p804
aVheath
p805
aVbacteremia
p806
aVmarburg virus
p807
a.