(lp0
Vsevere headaches
p1
aVinfluenza
p2
aVfetus
p3
aVlivestock
p4
aVedema
p5
aVswelling
p6
aVfoot and mouth disease
p7
aVqueen
p8
aVdomestic animal
p9
aVblisters
p10
aVdehydration
p11
aVchagas
p12
aVpulmonary anthrax
p13
aVcold
p14
aVinternal bleeding
p15
aVsuperbug
p16
aVrotavirus
p17
aVdeath
p18
aVasthma
p19
aVrickettsia
p20
aVdengue hemorrhagic fever
p21
aVvaricella
p22
aValtered mental status
p23
aVrash
p24
aVstreptococcus
p25
aVappendicitis
p26
aVdry cough
p27
aVdifficulty breathing
p28
aVcongenital rubella syndrome
p29
aVrhinovirus
p30
aVtb
p31
aVback pain
p32
aVfly
p33
aVphotophobia
p34
aVrespiratory symptoms
p35
aVsalmonellosis
p36
aVdam
p37
aVstiff neck
p38
aVmalaise
p39
aVgreen algae
p40
aVtuberculosis
p41
aVdisorientation
p42
aVstomach flu
p43
aVsore throat
p44
aVnausea
p45
aVparainfluenza virus
p46
aVneck stiffness
p47
aVretinitis
p48
aVvector
p49
aVdengue
p50
aVmosquito
p51
aVslurred speech
p52
aVmammal
p53
aVdizziness
p54
aVsoft
p55
aVencephalitis
p56
aVenterovirus
p57
aVhemorrhagic fever
p58
aVornamental
p59
aVsevere headache
p60
aVschmallenberg
p61
aVbleeding
p62
aVpontiac fever
p63
aVplant
p64
aVcanine
p65
aVchicken pox
p66
aVswine influenza
p67
aVswine flu
p68
aVencephalopathy
p69
aVaids
p70
aVvenezuelan equine encephalitis
p71
aVbacteria
p72
aVvibrio
p73
aVsevere respiratory illness
p74
aVrabies
p75
aVhigh fevers
p76
aVfevers
p77
aVpet
p78
aVhepatitis
p79
aVconjunctivitis
p80
aVneurological symptoms
p81
aVblurred vision
p82
aVbacterial meningitis
p83
aVsyphilis
p84
aVebola
p85
aVconvulsions
p86
aVheadaches
p87
aVbird
p88
aVhigh fever
p89
aVserious respiratory illness
p90
aVmalaria
p91
aVitching
p92
aValexander
p93
aVbronchopneumonia
p94
aVweak
p95
aVzona
p96
aVtetanus
p97
aVvomiting
p98
aVrunny nose
p99
aVcoma
p100
aVtick-borne encephalitis
p101
aVcough
p102
aVbody aches
p103
aVstupor
p104
aVrashes
p105
aVabortion
p106
aVcow
p107
aVh1n1
p108
aVannual
p109
aVnasopharyngitis
p110
aVdiscomfort
p111
aVstiffness
p112
aVbuckwheat
p113
aVlegionnaire 's disease
p114
aVmuscle pains
p115
aVchills
p116
aVlymphadenitis
p117
aVmayaro
p118
aVbrucellosis
p119
aVleishmaniasis
p120
aVmicroorganism
p121
aVstray
p122
aVflu symptoms
p123
aVsimple
p124
aVsepsis
p125
aVscrub typhus
p126
aVswollen lymph nodes
p127
aVfern
p128
aVviral fever
p129
aVrift valley fever
p130
aVpetechiae
p131
aVmeningococcal meningitis
p132
aVflavivirus
p133
aVlegionellosis
p134
aVendemic
p135
aVdyspnea
p136
aVseizures
p137
aVyellow fever
p138
aVrenal failure
p139
aVmara
p140
aVzoster virus
p141
aVavian flu
p142
aVsneezing
p143
aVacute respiratory symptoms
p144
aVherpes
p145
aVadenovirus
p146
aVleptospirosis
p147
aVafrican swine fever
p148
aVcholera
p149
aVtom
p150
aVsars
p151
aVavian influenza
p152
aVpathogen
p153
aVheadache
p154
aVparotitis
p155
aVebola virus
p156
aVloss of appetite
p157
aVmeningitis
p158
aVchikungunya
p159
aVmeasles
p160
aVcoughing
p161
aVpharyngitis
p162
aVinfection
p163
aVbody ache
p164
aVreye syndrome
p165
aVplague
p166
aVgastroenteritis
p167
aVprotozoan
p168
aVbreathing problems
p169
aVsevere respiratory disease
p170
aVsymptom
p171
aVpneumococcus
p172
aVhypotension
p173
aVsevere respiratory infection
p174
aVthoroughbred
p175
aVflu
p176
aVmyalgia
p177
aVcutaneous anthrax
p178
aVpustules
p179
aVpurpura
p180
aVpneumonia
p181
aVarthralgia
p182
aVhaemorrhagic fever
p183
aVpertussis
p184
aVrespiratory infection
p185
aVparalysis
p186
aVmuscle aches
p187
aVmoth
p188
aVjoint pain
p189
aVant
p190
aVcommon cold
p191
aVsimian
p192
aVanthrax
p193
aVinfectious agent
p194
aVmuscle pain
p195
aVredness
p196
aVdifficulty feeding
p197
aVtrichinosis
p198
aVpolio
p199
aVinfluenza-like illness
p200
aVdhf
p201
aVebola hemorrhagic fever
p202
aVdiarrhea
p203
aVlymphangitis
p204
aVred and watery eyes
p205
aVlesions
p206
aVwhooping cough
p207
aVtrichinellosis
p208
aVmumps
p209
aVanimal
p210
aVweakness
p211
aVgangrene
p212
aVblue ear
p213
aVlisteria
p214
aVchickenpox
p215
aVrubella
p216
aVfever
p217
aVpain
p218
aVvirus
p219
aVflu-like symptoms
p220
aVbacillus
p221
aVtyphoid
p222
aVclostridium
p223
aVdysentery
p224
aVmalta fever
p225
aVdiphtheria
p226
aVinsect
p227
aVfatigue
p228
aVperennial
p229
aVshortness of breath
p230
aVwest nile virus
p231
aVhydrocephalus
p232
aVdog
p233
aVsores
p234
aVwest nile fever
p235
aVmuscle spasms
p236
aVjoint pains
p237
aVgonorrhea
p238
aVabdominal pain
p239
aVjapanese encephalitis
p240
a.