(lp0
Vpeacock
p1
aVsevere headaches
p2
aVpheasant
p3
aVcough
p4
aVrod
p5
aVrabies virus
p6
aVblisters
p7
aVe. coli
p8
aVasymptomatic
p9
aVaggression
p10
aVklebsiella
p11
aVrunny nose
p12
aVrickettsia
p13
aVnorovirus
p14
aVblowfly
p15
aVpeanut
p16
aVdry cough
p17
aVbacillus anthracis
p18
aVrespiratory illness
p19
aVlassa virus
p20
aVnodules
p21
aVheadaches
p22
aVstiff neck
p23
aVmuscle spasms
p24
aVweight loss
p25
aVpoliovirus
p26
aVbrain inflammation
p27
aVsalmonella
p28
aVmeasles virus
p29
aVnausea
p30
aVstomach ache
p31
aVeschar
p32
aVneck stiffness
p33
aVshock
p34
aVhepatitis e virus
p35
aVhendra virus
p36
aVvector
p37
aVmammal
p38
aVtrypanosoma
p39
aVhuman enterovirus 71
p40
aVdiarrhoea
p41
aVenterovirus
p42
aVlantana
p43
aVornamental
p44
aVneck pain
p45
aVtired
p46
aVbleeding
p47
aVtea
p48
aVcytomegalovirus
p49
aVlavender
p50
aVcrop
p51
aVcactus
p52
aVbacteria
p53
aVdepression
p54
aVblue
p55
aVpoke
p56
aVmagnolia
p57
aVconjunctivitis
p58
aVneurological symptoms
p59
aVtrillium
p60
aVjaundice
p61
aVbird
p62
aVrift valley fever virus
p63
aVmyalgias
p64
aVsmall white
p65
aVasthenia
p66
aVstallion
p67
aVurethritis
p68
aVmule
p69
aVdecreased appetite
p70
aVintestinal flora
p71
aVmiscarriage
p72
aVbox
p73
aVstupor
p74
aVnumbness
p75
aVmouth sores
p76
aVbot
p77
aVpoor appetite
p78
aVhamster
p79
aVstiffness
p80
aVbuckwheat
p81
aVraccoon
p82
aVbreathing difficulties
p83
aVhydrophobia
p84
aVlymphadenitis
p85
aVstray
p86
aVbrain damage
p87
aVbullock
p88
aVphotophobia
p89
aVcoxsackievirus
p90
aVape
p91
aVsweating
p92
aVcelery
p93
aVash
p94
aVsalmonella typhimurium
p95
aVthroat pain
p96
aVfrog
p97
aVtachycardia
p98
aVcalf
p99
aVlinden
p100
aVloss of appetite
p101
aVretro-orbital pain
p102
aVrespiratory signs
p103
aVinfection
p104
aVgroup a streptococcus
p105
aVmelon
p106
aVparvo
p107
aVrabbit
p108
aVprotozoan
p109
aVcoyote
p110
aVsevere respiratory disease
p111
aVkrill
p112
aVfly
p113
aVeee virus
p114
aVprimate
p115
aVabortion
p116
aVcat
p117
aVstreptococcus
p118
aVden
p119
aVhaemorrhagic fever
p120
aVhippopotamus
p121
aVrespiratory infection
p122
aVbent
p123
aVconfused
p124
aVcarrot
p125
aVborrelia burgdorferi
p126
aVsimian
p127
aVfmdv
p128
aVrape
p129
aVredness
p130
aVpink
p131
aVhog
p132
aVyellow fever virus
p133
aVruminant
p134
aVsiv
p135
aVulcers in the mouth
p136
aVscarring
p137
aVpoisonous plant
p138
aVred and watery eyes
p139
aVlesions
p140
aVexcessive salivation
p141
aVlisteria monocytogenes
p142
aVanimal
p143
aVstock
p144
aVmap
p145
aVplant
p146
aVfever
p147
aVplasmodium
p148
aVflu-like symptoms
p149
aVabscess
p150
aVclostridium
p151
aVarthritis
p152
aVmac
p153
aVdyspnoea
p154
aVfatigue
p155
aVfits
p156
aVmarrow
p157
aVhawk
p158
aVterrier
p159
aVtomato
p160
aVleishmania
p161
aVbloating
p162
aVmemory loss
p163
aVarthralgia
p164
aVstop breathing
p165
aVhib
p166
aVst
p167
aVchest pain
p168
aVjoint pains
p169
aVcomatose
p170
aVmonocot
p171
aVtaro
p172
aVfetus
p173
aVwillow
p174
aVmeningococcus
p175
aVswollen glands
p176
aVrespiratory problems
p177
aVbleeding gums
p178
aVfoot and mouth disease virus
p179
aVsomnolence
p180
aVchihuahua
p181
aVmuscle atrophy
p182
aVbacteremia
p183
aVurinary tract infection
p184
aVbuttercup
p185
aVtwitching
p186
aVfig
p187
aVdengue virus
p188
aVanemia
p189
aVinsect
p190
aVbackache
p191
aVthoroughbred
p192
aVcoffee
p193
aVdrenching sweats
p194
aVsars coronavirus
p195
aVweakness
p196
aVdrowsiness
p197
aVsleepiness
p198
aVh3n8
p199
aVvomit
p200
aVsnake
p201
aVflea
p202
aVdisorientation
p203
aVh3n2
p204
aVsore throat
p205
aVparainfluenza virus
p206
aVlettuce
p207
aVh5n1
p208
aVhemoptysis
p209
aVross river virus
p210
aVcoagulation
p211
aVehd virus
p212
aVnasal congestion
p213
aVrosemary
p214
aVencephalitis
p215
aVincoordination
p216
aVhemorrhagic fever
p217
aVsevere headache
p218
aVconstipation
p219
aVwild boar
p220
aVfish
p221
aVzebra
p222
aVirritation
p223
aVh1n1 flu virus
p224
aVlemongrass
p225
aVvibrio
p226
aVvertigo
p227
aVhcv
p228
aVallergic reaction
p229
aVhigh fevers
p230
aVheart failure
p231
aVatypical pneumonia
p232
aVdehydrated
p233
aVmaple
p234
aVstud
p235
aValphavirus
p236
aVbreathlessness
p237
aVeagle
p238
aVmental confusion
p239
aVmurmur
p240
aVpoppy
p241
aVweed
p242
aVpup
p243
aVblister
p244
aVequine
p245
aVh1n1
p246
aVdiscomfort
p247
aVprotist
p248
aVostrich
p249
aVswine
p250
aVdaisy
p251
aVchills
p252
aVcopper
p253
aVev 71
p254
aVguan
p255
aVhsv-1
p256
aVfeeder
p257
aVelder
p258
aVstillbirth
p259
aVlegionellosis
p260
aVwhale
p261
aVendemic
p262
aVcassava
p263
aVseizures
p264
aVtimothy
p265
aVhorse
p266
aVbreathless
p267
aVmonkey
p268
aVailanthus
p269
aVacute respiratory symptoms
p270
aVcivet
p271
aVprickly pear
p272
aVadenovirus
p273
aVanaemia
p274
aVtom
p275
aVbanana
p276
aVchikungunya virus
p277
aVheadache
p278
aVafrican swine fever virus
p279
aVswelling of the brain
p280
aVsores
p281
aVpharyngitis
p282
aVparvovirus
p283
aVcardiac arrest
p284
aVgastroenteritis
p285
aVbreathing problems
p286
aVrsv
p287
aVsymptom
p288
aVpneumococcus
p289
aVanxiety
p290
aVsevere respiratory infection
p291
aVeiav
p292
aVtree
p293
aVmyalgia
p294
aVbee
p295
aVpurpura
p296
aVpneumonia
p297
aVpathogen
p298
aVfruit bat
p299
aVlarva
p300
aVcoconut
p301
aVmink
p302
aVorgan failure
p303
aVsepticemia
p304
aVavian influenza virus
p305
aVtupelo
p306
aVencephalopathy
p307
aVchikv
p308
aVmarijuana
p309
aVboil
p310
aVant
p311
aVrat
p312
aVlung infection
p313
aVbordetella pertussis
p314
aVdementia
p315
aVmuscle pain
p316
aVpreterm
p317
aVsevere pain
p318
aVfitting
p319
aVmild fever
p320
aVskin lesions
p321
aVfrail
p322
aVwaterfowl
p323
aVlisteria
p324
aVexcessive sweating
p325
aVsars virus
p326
aVaids virus
p327
aVpain
p328
aVvision loss
p329
aVsugarcane
p330
aVelectrolyte imbalance
p331
aVseptic shock
p332
aVvirus
p333
aVrigor
p334
aVcracking
p335
aVneurological damage
p336
aVoyster
p337
aVmaria
p338
aVpremature birth
p339
aVpersistent vomiting
p340
aVbracken
p341
aVpyrexia
p342
aVhydrocephalus
p343
aVfilly
p344
aVdoe
p345
aVpineapple
p346
aVpersonality changes
p347
aVskunk
p348
aVaquatic
p349
aVcereal
p350
aVsparrow
p351
aVlotus
p352
aVswelling
p353
aVhigh temperature
p354
aVqueen
p355
aVbeech
p356
aVinfluenza a ( h1n1 ) virus
p357
aVseaweed
p358
aVtiredness
p359
aVa/h1n1 virus
p360
aVgasping
p361
aVlivestock
p362
aVgnat
p363
aVinfluenza a(h3n2 ) virus
p364
aVherbivore
p365
aVcamel
p366
aVrash
p367
aVlansing
p368
aVdermatitis
p369
aVmaculopapular
p370
aVcoryza
p371
aVnewcastle disease virus
p372
aVa/h1n1
p373
aVhiv
p374
aVbody ache
p375
aVcoxiella burnetii
p376
aVrespiratory failure
p377
aVbear
p378
aVbean
p379
aVmalaise
p380
aVwatermelon
p381
aVinfluenza a virus
p382
aVabscess formation
p383
aValexander
p384
aVbat
p385
aVskin rash
p386
aVintense pain
p387
aVcoughs
p388
aVdizziness
p389
aVflu symptoms
p390
aVsuckling
p391
aVlethargy
p392
aVabdominal pain
p393
aVcanine
p394
aVliver dysfunction
p395
aVthistle
p396
aVseal
p397
aVliver failure
p398
aVmiserable
p399
aVmycobacterium tuberculosis
p400
aVthrombocytopenia
p401
aVbloody diarrhea
p402
aVfeline
p403
aVred eyes
p404
aVc. difficile
p405
aVserious respiratory illness
p406
aVlow grade fever
p407
aVamazon
p408
aVsin nombre virus
p409
aVconfusion
p410
aVweak
p411
aVreovirus
p412
aVswine flu virus
p413
aVhiv-2
p414
aVcachexia
p415
aVsimian immunodeficiency virus
p416
aVvre
p417
aVcoma
p418
aVneisseria gonorrhea
p419
aVvomiting
p420
aVescherichia coli
p421
aVcolony collapse
p422
aVrashes
p423
aVcow
p424
aVitchy rash
p425
aVannual
p426
aVhantavirus
p427
aVa(h3n2 )
p428
aVarbor
p429
aVclassical swine fever virus
p430
aVchronic diarrhea
p431
aVwatery diarrhea
p432
aVabdominal cramps
p433
aVnasal discharge
p434
aVdysphagia
p435
aVdistress
p436
aVsimple
p437
aVsepsis
p438
aVh3n2 virus
p439
aVleon
p440
aValtered mental status
p441
aVbegonia
p442
aVpetechiae
p443
aVataxia
p444
aVpoll
p445
aVdyspnea
p446
aVoral lesions
p447
aVrenal failure
p448
aVmara
p449
aVinternal and external bleeding
p450
aVhepatomegaly
p451
aVabaca
p452
aVvertebrate
p453
aVrespiratory arrest
p454
aVhaemorrhage
p455
aVchrysanthemum
p456
aVwheezing
p457
aVchlamydophila abortus
p458
aVexhaustion
p459
aVmuscle aches
p460
aVsquirrel
p461
aVphytoplankton
p462
aVcoughing
p463
aVgas
p464
aVchill
p465
aVlumpy skin disease virus
p466
aVginger
p467
aVbull
p468
aVpeste des petits ruminants virus
p469
aVwildcat
p470
aVgeneralized aches and pains
p471
aVgreen algae
p472
aVhypotension
p473
aVseedling
p474
aVtang
p475
aVcapsicum
p476
aVpustules
p477
aVsesame
p478
aVherpes zoster
p479
aVmultiple organ failure
p480
aVveronica
p481
aVequine arteritis virus
p482
aVswollen lymph glands
p483
aVagitation
p484
aVmoth
p485
aVsquid
p486
aVanil
p487
aVjoint pain
p488
aVargus
p489
aVaggressiveness
p490
aVbeaver
p491
aVmouse
p492
aVworry
p493
aVleafhopper
p494
aVrespiratory distress
p495
aVsevere joint pains
p496
aVplaques
p497
aVmedic
p498
aVinfectious agent
p499
aVlymphangitis
p500
aVaphid
p501
aVotitis
p502
aVflower
p503
aVdam
p504
aVvegetable
p505
aVmonarch
p506
aVhoneybee
p507
aVsucculent
p508
aVeggplant
p509
aVdifficulty feeding
p510
aVfoal
p511
aVkit
p512
aVgarlic
p513
aVjapanese encephalitis virus
p514
aVbirch
p515
aVbronchiolitis
p516
aVstomach pain
p517
aVtuna
p518
aVcultivar
p519
aVeucalyptus
p520
aVtoxicity
p521
aVperennial
p522
aVinfertility
p523
aVshortness of breath
p524
aVwest nile virus
p525
aVbody pain
p526
aVmultiple abscesses
p527
aVrespiratory insufficiency
p528
aVsuperbug
p529
aVedema
p530
aVhuman immunodeficiency virus
p531
aVlow blood pressure
p532
aVrodent
p533
aVdehydration
p534
aVstunt
p535
aVlaurel
p536
aVscabs
p537
aVinternal bleeding
p538
aVhyperesthesia
p539
aVrotavirus
p540
aVdeath
p541
aVasthma
p542
aVrose
p543
aVnipah virus
p544
aVroyal
p545
aVdifficulty breathing
p546
aVpupa
p547
aVrhinovirus
p548
aVdark urine
p549
aVparamyxovirus
p550
aVcerebral hemorrhage
p551
aVrespiratory symptoms
p552
aVh5n1 virus
p553
aVa(h1n1 )
p554
aVmanatee
p555
aVclam
p556
aVgangrene
p557
aVhallucinations
p558
aVworld
p559
aVmoa
p560
aVtick
p561
aVscavenger
p562
aVabnormal behavior
p563
aVonion
p564
aVmidge
p565
aVretrovirus
p566
aVmuscle tremors
p567
aVexhausted
p568
aVmosquito
p569
aVclay
p570
aVchick
p571
aVunable to fly
p572
aVsoft
p573
aVlocust
p574
aVskunk cabbage
p575
aVboar
p576
aVgrowth retardation
p577
aVb. anthracis
p578
aVsalmonella typhi
p579
aVescape
p580
aVhemorrhage
p581
aVbruising
p582
aVflavivirus
p583
aVsevere respiratory illness
p584
aVsars-cov
p585
aVpet
p586
aVfox
p587
aVretinitis
p588
aVhepatitis
p589
aVgastrointestinal symptoms
p590
aVplantain
p591
aVconvulsions
p592
aVacute respiratory distress
p593
aVhigh fever
p594
aVpepper
p595
aVmarine animal
p596
aVitching
p597
aVslurred speech
p598
aVchest tightness
p599
aVhygrophyte
p600
aVpondweed
p601
aVtremors
p602
aVlegionella
p603
aVmite
p604
aVherpes
p605
aVcoral
p606
aVparalysis
p607
aVhematuria
p608
aVmuscle weakness
p609
aVbiennial
p610
aVchow
p611
aVmarburg virus
p612
aVmuscle pains
p613
aVndv
p614
aVtriton
p615
aVkidney failure
p616
aVreptile
p617
aVmicroorganism
p618
aVburning
p619
aVwasting
p620
aVdeafness
p621
aVbone pain
p622
aVswollen lymph nodes
p623
aVfern
p624
aVviral fever
p625
aVproteinuria
p626
aVsow
p627
aVsoy
p628
aVblurred vision
p629
aVanorexia
p630
aVdry mouth
p631
aVsneezing
p632
aVgroundnut
p633
aVmyoclonus
p634
aVhen
p635
aVsevere pneumonia
p636
aVthrips
p637
aVebola virus
p638
aVpetechial rash
p639
aVhaemophilus influenzae
p640
aVnightshade
p641
aVbrucella
p642
aVwnv
p643
aVling
p644
aVbug
p645
aVdifficulty swallowing
p646
aVrush
p647
aVdysentery
p648
aVsalmonella enteritidis
p649
aVpotato
p650
aVerica
p651
aVpalm
p652
aVbody aches
p653
aVgrass
p654
aVev71
p655
aVneuritis
p656
aVmycobacterium
p657
aVfour o'clock
p658
aVpia
p659
aVmarmot
p660
aVdeer
p661
aVenterococcus
p662
aVdog
p663
aVhypertension
p664
aVspasms
p665
aVrespiratory syncytial virus
p666
aVchlamydia
p667
aVquail
p668
aVmachupo virus
p669
aVheather
p670
aVinfluenza-like illness
p671
aVdomestic animal
p672
aVdiarrhea
p673
aVapnea
p674
aVnephritis
p675
aVpuppy
p676
aVsevere diarrhea
p677
aVneisseria meningitidis
p678
aVbacillus
p679
aVback pain
p680
aVlymphadenopathy
p681
aVnight sweats
p682
aVfebrile illness
p683
aVcyanosis
p684
aVtick-borne encephalitis virus
p685
aVmeningitis
p686
aVrock hyrax
p687
aVvaricella-zoster virus
p688
aVfevers
p689
aVorchitis
p690
aVheath
p691
aVfall webworm
p692
aVh1n1 virus
p693
a.